; Function Attrs: mustprogress uwtable
define dso_local noundef ptr @_ZNK7AstNode14findBasicDTypeE14VBasicDTypeKwd(ptr nocapture noundef nonnull readonly align 8 dereferenceable(152) %0, i8 %1) local_unnamed_addr #4 align 2 {
  %3 = load ptr, ptr @v3Global, align 8
  %4 = getelementptr inbounds i8, ptr %3, i64 160
  %5 = load ptr, ptr %4, align 8
  %6 = getelementptr inbounds i8, ptr %0, i64 88
  %7 = load ptr, ptr %6, align 8
  %8 = tail call noundef ptr @_ZN12AstTypeTable14findBasicDTypeEP8FileLine14VBasicDTypeKwd(ptr noundef nonnull align 8 dereferenceable(448) %5, ptr noundef %7, i8 %1)
  ret ptr %8
}